target datalayout = "e-m:e-p270:32:32-p271:32:32-p272:64:64-i64:64-i128:128-f80:128-n8:16:32:64-S128"
target triple = "x86_64-pc-linux-gnu"

%struct.UConverter = type { ptr, ptr, ptr, ptr, ptr, ptr, ptr, i32, i8, i8, i8, i8, i8, [7 x i8], i32, i32, i32, i32, i8, i8, i8, i8, i8, i8, i8, i8, [8 x i8], [32 x i8], [2 x i16], [2 x i16], [32 x i16], i32, [19 x i16], [31 x i8], i8, i8, i8, i32 }
%struct.UConverterDataISCII = type { i16, i16, i16, i16, i16, i32, i32, i32, i8, i8, [16 x i8], i32 }
%struct.cloneISCIIStruct = type { %struct.UConverter, %struct.UConverterDataISCII }

; Function Attrs: inlinehint mustprogress nounwind uwtable
define internal noundef signext i8 @_ZL9U_FAILURE10UErrorCode(i32 noundef %0) #7 {
  %2 = alloca i32, align 4
  store i32 %0, ptr %2, align 4, !tbaa !41
  %3 = load i32, ptr %2, align 4, !tbaa !41
  %4 = icmp sgt i32 %3, 0
  %5 = zext i1 %4 to i8
  ret i8 %5
}

; Function Attrs: mustprogress nounwind uwtable
define internal noundef ptr @_ZL16_ISCII_SafeClonePK10UConverterPvPiP10UErrorCode(ptr noundef %0, ptr noundef %1, ptr noundef %2, ptr noundef %3) #1 {
  %5 = alloca ptr, align 8
  %6 = alloca ptr, align 8
  %7 = alloca ptr, align 8
  %8 = alloca ptr, align 8
  %9 = alloca ptr, align 8
  %10 = alloca ptr, align 8
  %11 = alloca i32, align 4
  %12 = alloca i32, align 4
  store ptr %0, ptr %6, align 8, !tbaa !3
  store ptr %1, ptr %7, align 8, !tbaa !8
  store ptr %2, ptr %8, align 8, !tbaa !57
  store ptr %3, ptr %9, align 8, !tbaa !8
  call void @llvm.lifetime.start.p0(i64 8, ptr %10) #10
  call void @llvm.lifetime.start.p0(i64 4, ptr %11) #10
  store i32 336, ptr %11, align 4, !tbaa !18
  %13 = load ptr, ptr %9, align 8, !tbaa !8
  %14 = load i32, ptr %13, align 4, !tbaa !41
  %15 = call noundef signext i8 @_ZL9U_FAILURE10UErrorCode(i32 noundef %14)
  %16 = icmp ne i8 %15, 0
  br i1 %16, label %17, label %18

17:                                               ; preds = %4
  store ptr null, ptr %5, align 8
  store i32 1, ptr %12, align 4
  br label %45

18:                                               ; preds = %4
  %19 = load ptr, ptr %8, align 8, !tbaa !57
  %20 = load i32, ptr %19, align 4, !tbaa !18
  %21 = icmp eq i32 %20, 0
  br i1 %21, label %22, label %25

22:                                               ; preds = %18
  %23 = load i32, ptr %11, align 4, !tbaa !18
  %24 = load ptr, ptr %8, align 8, !tbaa !57
  store i32 %23, ptr %24, align 4, !tbaa !18
  store ptr null, ptr %5, align 8
  store i32 1, ptr %12, align 4
  br label %45

25:                                               ; preds = %18
  %26 = load ptr, ptr %7, align 8, !tbaa !8
  store ptr %26, ptr %10, align 8, !tbaa !80
  br label %27

27:                                               ; preds = %25
  %28 = load ptr, ptr %10, align 8, !tbaa !80
  %29 = getelementptr inbounds nuw %struct.cloneISCIIStruct, ptr %28, i32 0, i32 1
  %30 = load ptr, ptr %6, align 8, !tbaa !3
  %31 = getelementptr inbounds nuw %struct.UConverter, ptr %30, i32 0, i32 2
  %32 = load ptr, ptr %31, align 8, !tbaa !14
  call void @llvm.memcpy.p0.p0.i64(ptr align 8 %29, ptr align 1 %32, i64 48, i1 false)
  br label %33

33:                                               ; preds = %27
  br label %34

34:                                               ; preds = %33
  %35 = load ptr, ptr %10, align 8, !tbaa !80
  %36 = getelementptr inbounds nuw %struct.cloneISCIIStruct, ptr %35, i32 0, i32 1
  %37 = load ptr, ptr %10, align 8, !tbaa !80
  %38 = getelementptr inbounds nuw %struct.cloneISCIIStruct, ptr %37, i32 0, i32 0
  %39 = getelementptr inbounds nuw %struct.UConverter, ptr %38, i32 0, i32 2
  store ptr %36, ptr %39, align 8, !tbaa !82
  %40 = load ptr, ptr %10, align 8, !tbaa !80
  %41 = getelementptr inbounds nuw %struct.cloneISCIIStruct, ptr %40, i32 0, i32 0
  %42 = getelementptr inbounds nuw %struct.UConverter, ptr %41, i32 0, i32 10
  store i8 1, ptr %42, align 2, !tbaa !84
  %43 = load ptr, ptr %10, align 8, !tbaa !80
  %44 = getelementptr inbounds nuw %struct.cloneISCIIStruct, ptr %43, i32 0, i32 0
  store ptr %44, ptr %5, align 8
  store i32 1, ptr %12, align 4
  br label %45

45:                                               ; preds = %34, %22, %17
  call void @llvm.lifetime.end.p0(i64 4, ptr %11) #10
  call void @llvm.lifetime.end.p0(i64 8, ptr %10) #10
  %46 = load ptr, ptr %5, align 8
  ret ptr %46
}